; Function Attrs: null_pointer_is_valid sspstrong uwtable
define internal i32 @dissect_p1_T_numeric_private_domain_identifier(i1 noundef zeroext %0, ptr noundef %1, i32 noundef %2, ptr noundef %3, ptr noundef %4, i32 noundef %5) #0 {
  %7 = alloca ptr, align 8
  call void @llvm.lifetime.start.p0(i64 8, ptr nonnull %7) #5
  store ptr null, ptr %7, align 8
  %8 = call i32 @dissect_ber_constrained_restricted_string(i1 noundef zeroext %0, i32 noundef 18, ptr noundef %3, ptr noundef %4, ptr noundef %1, i32 noundef %2, i32 noundef 1, i32 noundef 16, i32 noundef %5, ptr noundef nonnull %7)
  %9 = load ptr, ptr %7, align 8
  %10 = getelementptr inbounds nuw i8, ptr %3, i64 16
  %11 = load ptr, ptr %10, align 8
  %12 = getelementptr inbounds nuw i8, ptr %11, i64 408
  %13 = load ptr, ptr %12, align 8
  %14 = load i32, ptr @proto_p1, align 4
  %15 = call ptr @p_get_proto_data(ptr noundef %13, ptr noundef %11, i32 noundef %14, i32 noundef 0)
  %.not.i.i = icmp eq ptr %15, null
  br i1 %.not.i.i, label %get_do_address_ctx.exit.i, label %get_do_address_ctx.exit.thread.i

get_do_address_ctx.exit.i:                        ; preds = %6
  %16 = getelementptr inbounds nuw i8, ptr %3, i64 136
  %17 = load ptr, ptr %16, align 8
  %.not.i = icmp eq ptr %17, null
  br i1 %.not.i, label %do_address.exit, label %get_do_address_ctx.exit.thread.i

get_do_address_ctx.exit.thread.i:                 ; preds = %get_do_address_ctx.exit.i, %6
  %.0.i17.i = phi ptr [ %17, %get_do_address_ctx.exit.i ], [ %15, %6 ]
  %18 = load i8, ptr %.0.i17.i, align 8, !range !6, !noundef !7
  %19 = trunc nuw i8 %18 to i1
  %.not14.i = icmp ne ptr %9, null
  %or.cond.not = select i1 %19, i1 %.not14.i, i1 false
  br i1 %or.cond.not, label %20, label %do_address.exit

20:                                               ; preds = %get_do_address_ctx.exit.thread.i
  %21 = getelementptr inbounds nuw i8, ptr %.0.i17.i, i64 24
  %22 = load ptr, ptr %21, align 8
  %23 = load ptr, ptr %10, align 8
  %24 = getelementptr inbounds nuw i8, ptr %23, i64 408
  %25 = load ptr, ptr %24, align 8
  %26 = call i32 @tvb_captured_length(ptr noundef nonnull %9)
  %27 = call ptr @tvb_format_text(ptr noundef %25, ptr noundef nonnull %9, i32 noundef 0, i32 noundef %26)
  call void @wmem_strbuf_append(ptr noundef %22, ptr noundef %27)
  br label %do_address.exit

do_address.exit:                                  ; preds = %get_do_address_ctx.exit.i, %get_do_address_ctx.exit.thread.i, %20
  call void @llvm.lifetime.end.p0(i64 8, ptr nonnull %7) #5
  ret i32 %8
}